; Function Attrs: nounwind uwtable
define hidden range(i32 0, 4) i32 @xsettings_list_delete(ptr noundef captures(none) %0, ptr noundef readonly captures(none) %1) local_unnamed_addr #0 {
  %.01318 = load ptr, ptr %0, align 8
  %.not19 = icmp eq ptr %.01318, null
  br i1 %.not19, label %.loopexit, label %.lr.ph.preheader

.lr.ph.preheader:                                 ; preds = %2
  %3 = load ptr, ptr %.01318, align 8
  %4 = load ptr, ptr %3, align 8
  %5 = tail call i32 @strcmp(ptr noundef nonnull dereferenceable(1) %1, ptr noundef nonnull dereferenceable(1) %4) #16
  %6 = icmp eq i32 %5, 0
  br i1 %6, label %.lr.ph._crit_edge, label %.lr.ph29

.lr.ph:                                           ; preds = %.lr.ph29
  %7 = load ptr, ptr %.013, align 8
  %8 = load ptr, ptr %7, align 8
  %9 = tail call i32 @strcmp(ptr noundef nonnull dereferenceable(1) %1, ptr noundef nonnull dereferenceable(1) %8) #16
  %10 = icmp eq i32 %9, 0
  br i1 %10, label %.lr.ph._crit_edge, label %.lr.ph29, !llvm.loop !8

.lr.ph._crit_edge:                                ; preds = %.lr.ph, %.lr.ph.preheader
  %.01321.lcssa = phi ptr [ %.01318, %.lr.ph.preheader ], [ %.013, %.lr.ph ]
  %.020.lcssa = phi ptr [ null, %.lr.ph.preheader ], [ %.0132128, %.lr.ph ]
  %.not15 = icmp eq ptr %.020.lcssa, null
  %11 = getelementptr inbounds nuw i8, ptr %.01321.lcssa, i64 8
  %12 = load ptr, ptr %11, align 8
  br i1 %.not15, label %15, label %13

13:                                               ; preds = %.lr.ph._crit_edge
  %14 = getelementptr inbounds nuw i8, ptr %.020.lcssa, i64 8
  store ptr %12, ptr %14, align 8
  br label %16

15:                                               ; preds = %.lr.ph._crit_edge
  store ptr %12, ptr %0, align 8
  br label %16

16:                                               ; preds = %15, %13
  %17 = load ptr, ptr %.01321.lcssa, align 8
  %18 = getelementptr inbounds nuw i8, ptr %17, i64 8
  %19 = load i32, ptr %18, align 8
  %20 = icmp eq i32 %19, 1
  br i1 %20, label %21, label %24

21:                                               ; preds = %16
  %22 = getelementptr inbounds nuw i8, ptr %17, i64 16
  %23 = load ptr, ptr %22, align 8
  tail call void @free(ptr noundef %23) #14
  br label %24

24:                                               ; preds = %21, %16
  %25 = load ptr, ptr %17, align 8
  %.not.i = icmp eq ptr %25, null
  br i1 %.not.i, label %xsettings_setting_free.exit, label %26

26:                                               ; preds = %24
  tail call void @free(ptr noundef nonnull %25) #14
  br label %xsettings_setting_free.exit

xsettings_setting_free.exit:                      ; preds = %24, %26
  tail call void @free(ptr noundef nonnull %17) #14
  tail call void @free(ptr noundef nonnull %.01321.lcssa) #14
  br label %.loopexit

.lr.ph29:                                         ; preds = %.lr.ph.preheader, %.lr.ph
  %.0132128 = phi ptr [ %.013, %.lr.ph ], [ %.01318, %.lr.ph.preheader ]
  %27 = getelementptr inbounds nuw i8, ptr %.0132128, i64 8
  %.013 = load ptr, ptr %27, align 8
  %.not = icmp eq ptr %.013, null
  br i1 %.not, label %.loopexit, label %.lr.ph, !llvm.loop !8

.loopexit:                                        ; preds = %.lr.ph29, %2, %xsettings_setting_free.exit
  %.014 = phi i32 [ 0, %xsettings_setting_free.exit ], [ 3, %2 ], [ 3, %.lr.ph29 ]
  ret i32 %.014
}